; Function Attrs: mustprogress uwtable
define dso_local void @_ZN22cmGlobalNinjaGenerator24AppendDirectoryForConfigERKNSt7__cxx1112basic_stringIcSt11char_traitsIcESaIcEEES7_S7_RS5_(ptr noundef nonnull align 8 dereferenceable(2808) %0, ptr noundef nonnull align 8 dereferenceable(32) %1, ptr noundef nonnull align 8 dereferenceable(32) %2, ptr noundef nonnull align 8 dereferenceable(32) %3, ptr noundef nonnull align 8 dereferenceable(32) %4) unnamed_addr #3 align 2 personality ptr @__gxx_personality_v0 {
  %6 = alloca [3 x %"struct.std::pair.1104"], align 8
  %7 = alloca %"class.std::__cxx11::basic_string", align 8
  %8 = tail call noundef zeroext i1 @_ZNKSt7__cxx1112basic_stringIcSt11char_traitsIcESaIcEE5emptyEv(ptr noundef nonnull align 8 dereferenceable(32) %2) #23
  br i1 %8, label %33, label %9

9:                                                ; preds = %5
  %10 = load ptr, ptr %0, align 8
  %11 = getelementptr inbounds i8, ptr %10, i64 320
  %12 = load ptr, ptr %11, align 8
  %13 = tail call noundef zeroext i1 %12(ptr noundef nonnull align 8 dereferenceable(1778) %0)
  br i1 %13, label %14, label %33

14:                                               ; preds = %9
  call void @llvm.lifetime.start.p0(i64 72, ptr nonnull %6)
  %15 = tail call { i64, ptr } @_ZNKSt7__cxx1112basic_stringIcSt11char_traitsIcESaIcEEcvSt17basic_string_viewIcS2_EEv(ptr noundef nonnull align 8 dereferenceable(32) %1) #23, !noalias !1141
  %16 = extractvalue { i64, ptr } %15, 0
  %17 = extractvalue { i64, ptr } %15, 1
  store i64 %16, ptr %6, align 8, !alias.scope !1144, !noalias !1141
  %.sroa.2.0..sroa_idx.i.i = getelementptr inbounds i8, ptr %6, i64 8
  store ptr %17, ptr %.sroa.2.0..sroa_idx.i.i, align 8, !alias.scope !1144, !noalias !1141
  %18 = getelementptr inbounds i8, ptr %6, i64 16
  store ptr null, ptr %18, align 8, !alias.scope !1144, !noalias !1141
  %19 = getelementptr inbounds i8, ptr %6, i64 24
  %20 = tail call { i64, ptr } @_ZNKSt7__cxx1112basic_stringIcSt11char_traitsIcESaIcEEcvSt17basic_string_viewIcS2_EEv(ptr noundef nonnull align 8 dereferenceable(32) %2) #23, !noalias !1141
  %21 = extractvalue { i64, ptr } %20, 0
  %22 = extractvalue { i64, ptr } %20, 1
  store i64 %21, ptr %19, align 8, !alias.scope !1147, !noalias !1141
  %.sroa.2.0..sroa_idx.i7.i = getelementptr inbounds i8, ptr %6, i64 32
  store ptr %22, ptr %.sroa.2.0..sroa_idx.i7.i, align 8, !alias.scope !1147, !noalias !1141
  %23 = getelementptr inbounds i8, ptr %6, i64 40
  store ptr null, ptr %23, align 8, !alias.scope !1147, !noalias !1141
  %24 = getelementptr inbounds i8, ptr %6, i64 48
  %25 = tail call { i64, ptr } @_ZNKSt7__cxx1112basic_stringIcSt11char_traitsIcESaIcEEcvSt17basic_string_viewIcS2_EEv(ptr noundef nonnull align 8 dereferenceable(32) %3) #23, !noalias !1141
  %26 = extractvalue { i64, ptr } %25, 0
  %27 = extractvalue { i64, ptr } %25, 1
  store i64 %26, ptr %24, align 8, !alias.scope !1150, !noalias !1141
  %.sroa.2.0..sroa_idx.i16.i = getelementptr inbounds i8, ptr %6, i64 56
  store ptr %27, ptr %.sroa.2.0..sroa_idx.i16.i, align 8, !alias.scope !1150, !noalias !1141
  %28 = getelementptr inbounds i8, ptr %6, i64 64
  store ptr null, ptr %28, align 8, !alias.scope !1150, !noalias !1141
  call void @_Z10cmCatViewsSt16initializer_listISt4pairISt17basic_string_viewIcSt11char_traitsIcEEPNSt7__cxx1112basic_stringIcS3_SaIcEEEEE(ptr dead_on_unwind nonnull writable sret(%"class.std::__cxx11::basic_string") align 8 %7, ptr nonnull %6, i64 3)
  call void @llvm.lifetime.end.p0(i64 72, ptr nonnull %6)
  %29 = invoke noundef nonnull align 8 dereferenceable(32) ptr @_ZNSt7__cxx1112basic_stringIcSt11char_traitsIcESaIcEEpLERKS4_(ptr noundef nonnull align 8 dereferenceable(32) %4, ptr noundef nonnull align 8 dereferenceable(32) %7)
          to label %30 unwind label %31

30:                                               ; preds = %14
  call void @_ZNSt7__cxx1112basic_stringIcSt11char_traitsIcESaIcEED1Ev(ptr noundef nonnull align 8 dereferenceable(32) %7) #23
  br label %33

31:                                               ; preds = %14
  %32 = landingpad { ptr, i32 }
          cleanup
  call void @_ZNSt7__cxx1112basic_stringIcSt11char_traitsIcESaIcEED1Ev(ptr noundef nonnull align 8 dereferenceable(32) %7) #23
  resume { ptr, i32 } %32

33:                                               ; preds = %30, %9, %5
  ret void
}